target datalayout = "e-m:e-p270:32:32-p271:32:32-p272:64:64-i64:64-i128:128-f80:128-n8:16:32:64-S128"
target triple = "x86_64-pc-linux-gnu"

%"class.net::IPEndPoint" = type <{ %"class.net::IPAddress", i16, [6 x i8] }>
%"class.net::IPAddress" = type { %"class.std::vector" }
%"class.std::vector" = type { %"struct.std::_Vector_base" }
%"struct.std::_Vector_base" = type { %"struct.std::_Vector_base<unsigned char, std::allocator<unsigned char>>::_Vector_impl" }
%"struct.std::_Vector_base<unsigned char, std::allocator<unsigned char>>::_Vector_impl" = type { %"struct.std::_Vector_base<unsigned char, std::allocator<unsigned char>>::_Vector_impl_data" }
%"struct.std::_Vector_base<unsigned char, std::allocator<unsigned char>>::_Vector_impl_data" = type { ptr, ptr, ptr }

; Function Attrs: mustprogress uwtable
define noundef zeroext i1 @_ZNK3net10IPEndPointeqERKS0_(ptr noundef nonnull align 8 dereferenceable(26) %0, ptr noundef nonnull align 8 dereferenceable(26) %1) #0 align 2 {
  %3 = alloca ptr, align 8
  %4 = alloca ptr, align 8
  store ptr %0, ptr %3, align 8, !tbaa !3
  store ptr %1, ptr %4, align 8, !tbaa !3
  %5 = load ptr, ptr %3, align 8
  %6 = getelementptr inbounds nuw %"class.net::IPEndPoint", ptr %5, i32 0, i32 0
  %7 = load ptr, ptr %4, align 8, !tbaa !3
  %8 = getelementptr inbounds nuw %"class.net::IPEndPoint", ptr %7, i32 0, i32 0
  %9 = call noundef zeroext i1 @_ZNK3net9IPAddresseqERKS0_(ptr noundef nonnull align 8 dereferenceable(24) %6, ptr noundef nonnull align 8 dereferenceable(24) %8)
  br i1 %9, label %10, label %19

10:                                               ; preds = %2
  %11 = getelementptr inbounds nuw %"class.net::IPEndPoint", ptr %5, i32 0, i32 1
  %12 = load i16, ptr %11, align 8, !tbaa !8
  %13 = zext i16 %12 to i32
  %14 = load ptr, ptr %4, align 8, !tbaa !3
  %15 = getelementptr inbounds nuw %"class.net::IPEndPoint", ptr %14, i32 0, i32 1
  %16 = load i16, ptr %15, align 8, !tbaa !8
  %17 = zext i16 %16 to i32
  %18 = icmp eq i32 %13, %17
  br label %19

19:                                               ; preds = %10, %2
  %20 = phi i1 [ false, %2 ], [ %18, %10 ]
  ret i1 %20
}