; Function Attrs: mustprogress uwtable
define noundef zeroext i1 @_ZNK3net10IPEndPointeqERKS0_(ptr noundef nonnull align 8 dereferenceable(26) %0, ptr noundef nonnull align 8 dereferenceable(26) %1) local_unnamed_addr #0 align 2 {
  %3 = tail call noundef zeroext i1 @_ZNK3net9IPAddresseqERKS0_(ptr noundef nonnull align 8 dereferenceable(24) %0, ptr noundef nonnull align 8 dereferenceable(24) %1)
  %4 = getelementptr inbounds nuw i8, ptr %0, i64 24
  %5 = load i16, ptr %4, align 8
  %6 = getelementptr inbounds nuw i8, ptr %1, i64 24
  %7 = load i16, ptr %6, align 8
  %8 = icmp eq i16 %5, %7
  %9 = select i1 %3, i1 %8, i1 false
  ret i1 %9
}